Certificate:
    Data:
        Version: 3 (0x2)
        Serial Number: 2 (0x2)
        Signature Algorithm: md5WithRSAEncryption
        Issuer: C=US, ST=PA, L=Home, O=JPmail, OU=testing, CN=demo/emailAddress=jpmail@jpmail.org
        Validity
            Not Before: Apr 17 20:57:24 2006 GMT
            Not After : Apr 17 20:57:24 2007 GMT
        Subject: C=US, ST=PA, O=JPmail, OU=JPmail Lab, CN=bob
        Subject Public Key Info:
            Public Key Algorithm: rsaEncryption
            RSA Public Key: (1024 bit)
                Modulus (1024 bit):
                    00:bf:ef:f6:33:6b:5a:5c:65:4e:93:50:c5:a1:55:
                    a4:80:a5:f2:a7:31:c0:79:ba:d6:1f:56:ac:e1:c9:
                    3f:37:43:05:dc:3c:f4:59:40:25:11:20:eb:87:be:
                    85:36:97:b1:88:8d:1b:d4:2f:bf:30:9a:0e:5b:28:
                    9c:da:9f:92:fb:c8:8c:fb:d6:7a:57:e8:15:62:ee:
                    d8:e9:3f:db:70:7c:3e:d2:19:30:ef:d6:12:2d:52:
                    98:c8:d2:81:4b:8b:2b:df:79:5f:1e:0b:88:b0:25:
                    68:4b:96:12:48:09:0d:8f:7e:aa:15:af:c8:03:05:
                    43:8d:8d:20:f9:cc:be:89:e3
                Exponent: 65537 (0x10001)
        X509v3 extensions:
            X509v3 Basic Constraints: 
                CA:FALSE
            Netscape Comment: 
                OpenSSL Generated Certificate
            X509v3 Subject Key Identifier: 
                EA:CD:1E:B0:2B:91:20:13:10:05:11:32:E3:62:ED:52:21:4D:F1:A9
            X509v3 Authority Key Identifier: 
                keyid:A0:C2:BD:2D:42:F5:FF:3E:97:01:98:E5:9F:5F:89:E9:11:CD:E0:B5
                DirName:/C=US/ST=PA/L=Home/O=JPmail/OU=testing/CN=demo/emailAddress=jpmail@jpmail.org
                serial:D5:86:87:96:8B:4C:41:4A

    Signature Algorithm: md5WithRSAEncryption
        32:a8:3d:62:c5:fd:5e:65:40:5d:81:d5:f9:ec:f5:b5:f8:63:
        21:56:d3:44:cb:c5:1f:b2:3b:74:df:2b:79:14:c0:48:37:bd:
        63:08:7d:98:0b:b6:bb:23:81:e2:af:a1:65:5d:f6:31:de:8a:
        fd:37:83:c5:f4:80:fb:d4:01:28:6d:bd:e6:a2:f0:55:ab:09:
        1c:9f:80:7b:07:84:02:b3:8f:14:2b:56:80:6f:5e:b1:cf:7d:
        2d:53:68:29:9d:72:c2:45:1b:cd:74:46:15:c2:20:10:e3:69:
        ea:f4:dc:4f:57:91:be:e7:b8:9f:3b:af:70:b5:96:96:8f:e5:
        39:1e
-----BEGIN CERTIFICATE-----
MIIDUjCCArugAwIBAgIBAjANBgkqhkiG9w0BAQQFADB9MQswCQYDVQQGEwJVUzEL
MAkGA1UECBMCUEExDTALBgNVBAcTBEhvbWUxDzANBgNVBAoTBkpQbWFpbDEQMA4G
A1UECxMHdGVzdGluZzENMAsGA1UEAxMEZGVtbzEgMB4GCSqGSIb3DQEJARYRanBt
YWlsQGpwbWFpbC5vcmcwHhcNMDYwNDE3MjA1NzI0WhcNMDcwNDE3MjA1NzI0WjBO
MQswCQYDVQQGEwJVUzELMAkGA1UECBMCUEExDzANBgNVBAoTBkpQbWFpbDETMBEG
A1UECxMKSlBtYWlsIExhYjEMMAoGA1UEAxMDYm9iMIGfMA0GCSqGSIb3DQEBAQUA
A4GNADCBiQKBgQC/7/Yza1pcZU6TUMWhVaSApfKnMcB5utYfVqzhyT83QwXcPPRZ
QCURIOuHvoU2l7GIjRvUL78wmg5bKJzan5L7yIz71npX6BVi7tjpP9twfD7SGTDv
1hItUpjI0oFLiyvfeV8eC4iwJWhLlhJICQ2PfqoVr8gDBUONjSD5zL6J4wIDAQAB
o4IBDzCCAQswCQYDVR0TBAIwADAsBglghkgBhvhCAQ0EHxYdT3BlblNTTCBHZW5l
cmF0ZWQgQ2VydGlmaWNhdGUwHQYDVR0OBBYEFOrNHrArkSATEAURMuNi7VIhTfGp
MIGwBgNVHSMEgagwgaWAFKDCvS1C9f8+lwGY5Z9fiekRzeC1oYGBpH8wfTELMAkG
A1UEBhMCVVMxCzAJBgNVBAgTAlBBMQ0wCwYDVQQHEwRIb21lMQ8wDQYDVQQKEwZK
UG1haWwxEDAOBgNVBAsTB3Rlc3RpbmcxDTALBgNVBAMTBGRlbW8xIDAeBgkqhkiG
9w0BCQEWEWpwbWFpbEBqcG1haWwub3JnggkA1YaHlotMQUowDQYJKoZIhvcNAQEE
BQADgYEAMqg9YsX9XmVAXYHV+ez1tfhjIVbTRMvFH7I7dN8reRTASDe9Ywh9mAu2
uyOB4q+hZV32Md6K/TeDxfSA+9QBKG295qLwVasJHJ+AeweEArOPFCtWgG9esc99
LVNoKZ1ywkUbzXRGFcIgEONp6vTcT1eRvue4nzuvcLWWlo/lOR4=
-----END CERTIFICATE-----
