Certificate:
    Data:
        Version: 3 (0x2)
        Serial Number: 1 (0x1)
        Signature Algorithm: md5WithRSAEncryption
        Issuer: C=US, ST=PA, L=Home, O=JPmail, OU=testing, CN=demo/emailAddress=jpmail@jpmail.org
        Validity
            Not Before: Apr 17 20:51:12 2006 GMT
            Not After : Apr 17 20:51:12 2007 GMT
        Subject: C=US, ST=PA, O=JPmail, OU=JPmail lab, CN=alice
        Subject Public Key Info:
            Public Key Algorithm: rsaEncryption
            RSA Public Key: (1024 bit)
                Modulus (1024 bit):
                    00:ca:e5:27:b0:67:53:c2:87:c0:93:5b:15:da:82:
                    ab:2b:e0:bb:0a:25:52:79:a9:d9:78:5a:ed:ca:8f:
                    92:87:b0:03:eb:da:8a:38:55:f9:19:3b:ae:08:9c:
                    86:fe:f0:66:44:77:4b:a7:3a:aa:17:58:ed:5d:e1:
                    d1:df:7e:22:45:ae:18:c3:4e:a0:d4:46:bc:40:f5:
                    9b:32:da:9c:33:dc:29:19:a6:93:b3:45:9f:11:3b:
                    80:b4:2c:8d:24:67:8c:c4:bc:e2:0e:62:9c:b7:7d:
                    76:ba:f9:db:96:a8:4e:2a:c5:c3:73:4e:c9:0e:73:
                    21:3a:73:81:7f:01:87:e5:bd
                Exponent: 65537 (0x10001)
        X509v3 extensions:
            X509v3 Basic Constraints: 
                CA:FALSE
            Netscape Comment: 
                OpenSSL Generated Certificate
            X509v3 Subject Key Identifier: 
                34:93:7B:43:67:A5:E5:98:01:B5:17:FB:E3:63:E1:82:AA:41:8B:30
            X509v3 Authority Key Identifier: 
                keyid:A0:C2:BD:2D:42:F5:FF:3E:97:01:98:E5:9F:5F:89:E9:11:CD:E0:B5
                DirName:/C=US/ST=PA/L=Home/O=JPmail/OU=testing/CN=demo/emailAddress=jpmail@jpmail.org
                serial:D5:86:87:96:8B:4C:41:4A

    Signature Algorithm: md5WithRSAEncryption
        29:d5:b6:69:ff:bd:2f:82:2e:e1:1a:dd:c7:9f:fd:08:4c:d9:
        b1:b1:e2:02:71:8b:a1:4f:51:e3:42:55:07:ef:f6:ee:f4:9e:
        2d:6f:36:58:df:69:0c:e5:8d:73:b8:20:63:db:d7:82:41:d1:
        17:f1:53:bf:4f:f1:8e:13:0b:31:d0:52:53:04:a4:08:f1:d7:
        bc:1d:48:1b:cb:c8:4f:d7:c6:1a:1e:7f:15:90:58:93:b1:f2:
        fa:51:fd:44:ae:5f:d5:f9:7f:3d:32:d7:98:8e:39:33:5f:93:
        79:b7:c8:94:c8:7a:e4:ca:8c:b8:98:38:ba:ae:a0:e6:da:8c:
        43:b4
-----BEGIN CERTIFICATE-----
MIIDVDCCAr2gAwIBAgIBATANBgkqhkiG9w0BAQQFADB9MQswCQYDVQQGEwJVUzEL
MAkGA1UECBMCUEExDTALBgNVBAcTBEhvbWUxDzANBgNVBAoTBkpQbWFpbDEQMA4G
A1UECxMHdGVzdGluZzENMAsGA1UEAxMEZGVtbzEgMB4GCSqGSIb3DQEJARYRanBt
YWlsQGpwbWFpbC5vcmcwHhcNMDYwNDE3MjA1MTEyWhcNMDcwNDE3MjA1MTEyWjBQ
MQswCQYDVQQGEwJVUzELMAkGA1UECBMCUEExDzANBgNVBAoTBkpQbWFpbDETMBEG
A1UECxMKSlBtYWlsIGxhYjEOMAwGA1UEAxMFYWxpY2UwgZ8wDQYJKoZIhvcNAQEB
BQADgY0AMIGJAoGBAMrlJ7BnU8KHwJNbFdqCqyvguwolUnmp2Xha7cqPkoewA+va
ijhV+Rk7rgichv7wZkR3S6c6qhdY7V3h0d9+IkWuGMNOoNRGvED1mzLanDPcKRmm
k7NFnxE7gLQsjSRnjMS84g5inLd9drr525aoTirFw3NOyQ5zITpzgX8Bh+W9AgMB
AAGjggEPMIIBCzAJBgNVHRMEAjAAMCwGCWCGSAGG+EIBDQQfFh1PcGVuU1NMIEdl
bmVyYXRlZCBDZXJ0aWZpY2F0ZTAdBgNVHQ4EFgQUNJN7Q2el5ZgBtRf742PhgqpB
izAwgbAGA1UdIwSBqDCBpYAUoMK9LUL1/z6XAZjln1+J6RHN4LWhgYGkfzB9MQsw
CQYDVQQGEwJVUzELMAkGA1UECBMCUEExDTALBgNVBAcTBEhvbWUxDzANBgNVBAoT
BkpQbWFpbDEQMA4GA1UECxMHdGVzdGluZzENMAsGA1UEAxMEZGVtbzEgMB4GCSqG
SIb3DQEJARYRanBtYWlsQGpwbWFpbC5vcmeCCQDVhoeWi0xBSjANBgkqhkiG9w0B
AQQFAAOBgQAp1bZp/70vgi7hGt3Hn/0ITNmxseICcYuhT1HjQlUH7/bu9J4tbzZY
32kM5Y1zuCBj29eCQdEX8VO/T/GOEwsx0FJTBKQI8de8HUgby8hP18YaHn8VkFiT
sfL6Uf1Erl/V+X89MteYjjkzX5N5t8iUyHrkyoy4mDi6rqDm2oxDtA==
-----END CERTIFICATE-----
