Certificate:
    Data:
        Version: 3 (0x2)
        Serial Number: 3 (0x3)
        Signature Algorithm: md5WithRSAEncryption
        Issuer: C=US, ST=PA, L=Home, O=JPmail, OU=testing, CN=demo/emailAddress=jpmail@jpmail.org
        Validity
            Not Before: Apr 17 21:18:27 2006 GMT
            Not After : Apr 17 21:18:27 2007 GMT
        Subject: C=US, ST=PA, O=JPmail, OU=JPmail Lab, CN=bono
        Subject Public Key Info:
            Public Key Algorithm: rsaEncryption
            RSA Public Key: (1024 bit)
                Modulus (1024 bit):
                    00:c1:eb:ca:37:5f:14:12:dc:1b:b2:2c:d0:03:76:
                    d6:9b:2c:07:f4:4b:15:29:b8:71:3a:33:e3:e0:34:
                    f8:7d:ca:db:9f:1c:44:ea:2b:bf:86:dc:47:77:91:
                    9d:77:c0:a1:92:93:89:a5:17:b8:af:b1:29:60:c4:
                    d3:37:c8:e6:57:7e:68:cb:65:e9:7a:2d:cc:6c:e1:
                    3f:66:36:a5:fa:91:09:dd:4d:1b:db:7d:eb:fb:53:
                    d8:43:b5:b6:34:a9:25:dc:1c:e1:8c:c9:db:a7:95:
                    80:11:55:86:8b:ae:29:69:f7:14:36:fc:22:e0:67:
                    20:bd:3d:90:da:1e:be:82:43
                Exponent: 65537 (0x10001)
        X509v3 extensions:
            X509v3 Basic Constraints: 
                CA:FALSE
            Netscape Comment: 
                OpenSSL Generated Certificate
            X509v3 Subject Key Identifier: 
                64:49:DE:FF:42:0B:2B:0B:5B:42:81:7A:38:72:84:6E:52:01:0E:7C
            X509v3 Authority Key Identifier: 
                keyid:A0:C2:BD:2D:42:F5:FF:3E:97:01:98:E5:9F:5F:89:E9:11:CD:E0:B5
                DirName:/C=US/ST=PA/L=Home/O=JPmail/OU=testing/CN=demo/emailAddress=jpmail@jpmail.org
                serial:D5:86:87:96:8B:4C:41:4A

    Signature Algorithm: md5WithRSAEncryption
        5e:dd:49:3d:1b:66:a0:f5:36:06:87:f1:a4:a5:9e:79:17:8e:
        95:98:4f:c7:88:19:e3:87:85:2f:4f:03:39:e4:72:36:1b:c5:
        f9:95:fd:4a:3e:cc:2f:7e:22:33:ec:fc:55:b9:79:b0:6b:ec:
        b7:b2:02:8c:e6:24:8e:38:86:2f:31:5c:1f:62:1d:09:c4:d9:
        5d:70:34:3a:e8:d9:63:18:ba:33:d0:88:12:14:80:41:3b:ee:
        3d:7d:49:fd:0a:09:2c:b8:c8:89:2f:c9:0d:d4:02:30:bd:fe:
        53:53:9a:d3:e8:28:3b:7b:1c:70:cf:86:1a:49:df:1b:67:5b:
        6c:0d
-----BEGIN CERTIFICATE-----
MIIDUzCCArygAwIBAgIBAzANBgkqhkiG9w0BAQQFADB9MQswCQYDVQQGEwJVUzEL
MAkGA1UECBMCUEExDTALBgNVBAcTBEhvbWUxDzANBgNVBAoTBkpQbWFpbDEQMA4G
A1UECxMHdGVzdGluZzENMAsGA1UEAxMEZGVtbzEgMB4GCSqGSIb3DQEJARYRanBt
YWlsQGpwbWFpbC5vcmcwHhcNMDYwNDE3MjExODI3WhcNMDcwNDE3MjExODI3WjBP
MQswCQYDVQQGEwJVUzELMAkGA1UECBMCUEExDzANBgNVBAoTBkpQbWFpbDETMBEG
A1UECxMKSlBtYWlsIExhYjENMAsGA1UEAxMEYm9ubzCBnzANBgkqhkiG9w0BAQEF
AAOBjQAwgYkCgYEAwevKN18UEtwbsizQA3bWmywH9EsVKbhxOjPj4DT4fcrbnxxE
6iu/htxHd5Gdd8ChkpOJpRe4r7EpYMTTN8jmV35oy2Xpei3MbOE/Zjal+pEJ3U0b
233r+1PYQ7W2NKkl3BzhjMnbp5WAEVWGi64pafcUNvwi4GcgvT2Q2h6+gkMCAwEA
AaOCAQ8wggELMAkGA1UdEwQCMAAwLAYJYIZIAYb4QgENBB8WHU9wZW5TU0wgR2Vu
ZXJhdGVkIENlcnRpZmljYXRlMB0GA1UdDgQWBBRkSd7/QgsrC1tCgXo4coRuUgEO
fDCBsAYDVR0jBIGoMIGlgBSgwr0tQvX/PpcBmOWfX4npEc3gtaGBgaR/MH0xCzAJ
BgNVBAYTAlVTMQswCQYDVQQIEwJQQTENMAsGA1UEBxMESG9tZTEPMA0GA1UEChMG
SlBtYWlsMRAwDgYDVQQLEwd0ZXN0aW5nMQ0wCwYDVQQDEwRkZW1vMSAwHgYJKoZI
hvcNAQkBFhFqcG1haWxAanBtYWlsLm9yZ4IJANWGh5aLTEFKMA0GCSqGSIb3DQEB
BAUAA4GBAF7dST0bZqD1NgaH8aSlnnkXjpWYT8eIGeOHhS9PAznkcjYbxfmV/Uo+
zC9+IjPs/FW5ebBr7LeyAozmJI44hi8xXB9iHQnE2V1wNDro2WMYujPQiBIUgEE7
7j19Sf0KCSy4yIkvyQ3UAjC9/lNTmtPoKDt7HHDPhhpJ3xtnW2wN
-----END CERTIFICATE-----
