Certificate:
    Data:
        Version: 3 (0x2)
        Serial Number: 4 (0x4)
        Signature Algorithm: md5WithRSAEncryption
        Issuer: C=US, ST=PA, L=Home, O=JPmail, OU=testing, CN=demo/emailAddress=jpmail@jpmail.org
        Validity
            Not Before: Apr 18 11:28:43 2006 GMT
            Not After : Apr 18 11:28:43 2007 GMT
        Subject: C=US, ST=PA, O=JPmail, OU=JPmail Lab, CN=bono1
        Subject Public Key Info:
            Public Key Algorithm: rsaEncryption
            RSA Public Key: (1024 bit)
                Modulus (1024 bit):
                    00:b5:86:fe:1a:c0:b4:00:25:6d:29:55:3d:05:c7:
                    34:b8:d1:c7:71:7a:6d:b5:47:e4:d8:1c:ba:7d:ae:
                    de:88:68:c2:1e:f5:3f:98:88:c6:dd:76:00:0a:ea:
                    e0:30:f3:14:c8:da:3f:41:ed:1a:8d:82:c5:f8:ae:
                    a4:9c:64:7d:93:c6:02:f7:70:15:c1:18:72:ee:05:
                    c9:2f:85:aa:4b:fb:22:e1:23:38:71:d9:33:66:5a:
                    9c:1c:8c:75:a1:1a:b3:74:06:9f:08:cf:92:10:f8:
                    46:88:b8:a8:cb:0b:02:40:fb:0f:f8:58:60:57:9a:
                    0d:7e:20:d0:b6:bf:d3:e4:cf
                Exponent: 65537 (0x10001)
        X509v3 extensions:
            X509v3 Basic Constraints: 
                CA:FALSE
            Netscape Comment: 
                OpenSSL Generated Certificate
            X509v3 Subject Key Identifier: 
                14:08:22:6F:2B:20:D2:B3:B4:E5:70:AB:D0:42:51:F7:6A:89:0A:10
            X509v3 Authority Key Identifier: 
                keyid:A0:C2:BD:2D:42:F5:FF:3E:97:01:98:E5:9F:5F:89:E9:11:CD:E0:B5
                DirName:/C=US/ST=PA/L=Home/O=JPmail/OU=testing/CN=demo/emailAddress=jpmail@jpmail.org
                serial:D5:86:87:96:8B:4C:41:4A

    Signature Algorithm: md5WithRSAEncryption
        23:1c:b8:26:71:ce:65:91:f9:9e:99:5d:e9:99:2f:e8:b1:38:
        88:39:b0:64:a1:0c:73:d9:24:d9:56:a3:cb:68:d7:69:ea:75:
        8c:2c:e4:d3:ee:a8:99:08:82:28:70:e3:fa:5d:67:47:49:b4:
        79:d4:4e:38:fa:db:33:d5:3c:02:8c:d8:ed:e1:bb:47:2b:c1:
        ee:31:be:c5:06:22:db:99:a4:04:9c:96:74:07:c5:76:ec:3f:
        91:b5:03:89:35:11:8b:67:58:1e:22:86:cc:6b:05:18:f2:dd:
        69:40:dd:b0:f3:8c:22:20:26:f1:c0:6f:50:90:fc:57:7d:71:
        1a:0a
-----BEGIN CERTIFICATE-----
MIIDVDCCAr2gAwIBAgIBBDANBgkqhkiG9w0BAQQFADB9MQswCQYDVQQGEwJVUzEL
MAkGA1UECBMCUEExDTALBgNVBAcTBEhvbWUxDzANBgNVBAoTBkpQbWFpbDEQMA4G
A1UECxMHdGVzdGluZzENMAsGA1UEAxMEZGVtbzEgMB4GCSqGSIb3DQEJARYRanBt
YWlsQGpwbWFpbC5vcmcwHhcNMDYwNDE4MTEyODQzWhcNMDcwNDE4MTEyODQzWjBQ
MQswCQYDVQQGEwJVUzELMAkGA1UECBMCUEExDzANBgNVBAoTBkpQbWFpbDETMBEG
A1UECxMKSlBtYWlsIExhYjEOMAwGA1UEAxMFYm9ubzEwgZ8wDQYJKoZIhvcNAQEB
BQADgY0AMIGJAoGBALWG/hrAtAAlbSlVPQXHNLjRx3F6bbVH5Ngcun2u3ohowh71
P5iIxt12AArq4DDzFMjaP0HtGo2CxfiupJxkfZPGAvdwFcEYcu4FyS+Fqkv7IuEj
OHHZM2ZanByMdaEas3QGnwjPkhD4Roi4qMsLAkD7D/hYYFeaDX4g0La/0+TPAgMB
AAGjggEPMIIBCzAJBgNVHRMEAjAAMCwGCWCGSAGG+EIBDQQfFh1PcGVuU1NMIEdl
bmVyYXRlZCBDZXJ0aWZpY2F0ZTAdBgNVHQ4EFgQUFAgibysg0rO05XCr0EJR92qJ
ChAwgbAGA1UdIwSBqDCBpYAUoMK9LUL1/z6XAZjln1+J6RHN4LWhgYGkfzB9MQsw
CQYDVQQGEwJVUzELMAkGA1UECBMCUEExDTALBgNVBAcTBEhvbWUxDzANBgNVBAoT
BkpQbWFpbDEQMA4GA1UECxMHdGVzdGluZzENMAsGA1UEAxMEZGVtbzEgMB4GCSqG
SIb3DQEJARYRanBtYWlsQGpwbWFpbC5vcmeCCQDVhoeWi0xBSjANBgkqhkiG9w0B
AQQFAAOBgQAjHLgmcc5lkfmemV3pmS/osTiIObBkoQxz2STZVqPLaNdp6nWMLOTT
7qiZCIIocOP6XWdHSbR51E44+tsz1TwCjNjt4btHK8HuMb7FBiLbmaQEnJZ0B8V2
7D+RtQOJNRGLZ1geIobMawUY8t1pQN2w84wiICbxwG9QkPxXfXEaCg==
-----END CERTIFICATE-----
