Certificate:
    Data:
        Version: 3 (0x2)
        Serial Number: 5 (0x5)
        Signature Algorithm: md5WithRSAEncryption
        Issuer: C=US, ST=PA, L=Home, O=JPmail, OU=testing, CN=demo/emailAddress=jpmail@jpmail.org
        Validity
            Not Before: Apr 18 11:43:26 2006 GMT
            Not After : Apr 18 11:43:26 2007 GMT
        Subject: C=US, ST=PA, O=JPmail, OU=JPmail Lab, CN=bono
        Subject Public Key Info:
            Public Key Algorithm: rsaEncryption
            RSA Public Key: (1024 bit)
                Modulus (1024 bit):
                    00:a7:93:06:6d:c6:3f:22:7f:95:ba:8d:41:6f:60:
                    f3:b7:6f:17:e9:f2:ea:02:f9:7f:a7:cd:9f:4f:9e:
                    55:f7:92:eb:3b:d9:da:05:49:a5:ec:34:ab:c1:73:
                    b3:4e:f3:99:79:83:ec:8c:3f:2f:aa:b5:c1:bb:0f:
                    b9:cf:3e:56:2a:de:0a:04:18:ce:0a:ed:aa:71:87:
                    43:92:c1:c0:fd:68:62:3b:1e:f4:f4:4b:9e:3d:c7:
                    d8:39:a4:68:93:47:8d:83:ed:10:35:74:df:dc:77:
                    ff:8b:1d:46:7d:e3:6f:7b:4a:a6:6d:f9:6e:59:77:
                    b4:7a:6e:68:7c:ba:5e:2a:15
                Exponent: 65537 (0x10001)
        X509v3 extensions:
            X509v3 Basic Constraints: 
                CA:FALSE
            Netscape Comment: 
                OpenSSL Generated Certificate
            X509v3 Subject Key Identifier: 
                E5:FF:C5:2A:89:85:D1:92:44:2E:B3:13:EB:A3:8D:46:C5:8A:09:B5
            X509v3 Authority Key Identifier: 
                keyid:A0:C2:BD:2D:42:F5:FF:3E:97:01:98:E5:9F:5F:89:E9:11:CD:E0:B5
                DirName:/C=US/ST=PA/L=Home/O=JPmail/OU=testing/CN=demo/emailAddress=jpmail@jpmail.org
                serial:D5:86:87:96:8B:4C:41:4A

    Signature Algorithm: md5WithRSAEncryption
        03:90:a8:ff:d1:db:87:ed:57:dd:66:bc:ad:4d:6f:8d:13:11:
        11:d1:67:f2:56:af:a2:3d:ba:14:22:f3:8e:7d:16:d5:82:94:
        ab:f9:d3:d5:66:f9:a3:8a:9a:8e:03:7e:83:cb:7c:41:b3:32:
        25:01:a5:d7:c8:da:5c:35:cb:d6:b4:69:4c:90:fa:8b:c4:cf:
        80:5a:03:79:2e:dc:20:a1:04:71:22:3a:3a:eb:69:3a:d1:b3:
        a9:b4:de:bd:28:3f:b2:a1:6c:1e:ca:e7:02:21:78:78:1f:2a:
        1b:7e:69:45:80:5f:9f:9f:5f:ad:6c:d0:ed:a5:80:75:e3:fe:
        81:f6
-----BEGIN CERTIFICATE-----
MIIDUzCCArygAwIBAgIBBTANBgkqhkiG9w0BAQQFADB9MQswCQYDVQQGEwJVUzEL
MAkGA1UECBMCUEExDTALBgNVBAcTBEhvbWUxDzANBgNVBAoTBkpQbWFpbDEQMA4G
A1UECxMHdGVzdGluZzENMAsGA1UEAxMEZGVtbzEgMB4GCSqGSIb3DQEJARYRanBt
YWlsQGpwbWFpbC5vcmcwHhcNMDYwNDE4MTE0MzI2WhcNMDcwNDE4MTE0MzI2WjBP
MQswCQYDVQQGEwJVUzELMAkGA1UECBMCUEExDzANBgNVBAoTBkpQbWFpbDETMBEG
A1UECxMKSlBtYWlsIExhYjENMAsGA1UEAxMEYm9ubzCBnzANBgkqhkiG9w0BAQEF
AAOBjQAwgYkCgYEAp5MGbcY/In+Vuo1Bb2Dzt28X6fLqAvl/p82fT55V95LrO9na
BUml7DSrwXOzTvOZeYPsjD8vqrXBuw+5zz5WKt4KBBjOCu2qcYdDksHA/WhiOx70
9EuePcfYOaRok0eNg+0QNXTf3Hf/ix1GfeNve0qmbfluWXe0em5ofLpeKhUCAwEA
AaOCAQ8wggELMAkGA1UdEwQCMAAwLAYJYIZIAYb4QgENBB8WHU9wZW5TU0wgR2Vu
ZXJhdGVkIENlcnRpZmljYXRlMB0GA1UdDgQWBBTl/8UqiYXRkkQusxPro41GxYoJ
tTCBsAYDVR0jBIGoMIGlgBSgwr0tQvX/PpcBmOWfX4npEc3gtaGBgaR/MH0xCzAJ
BgNVBAYTAlVTMQswCQYDVQQIEwJQQTENMAsGA1UEBxMESG9tZTEPMA0GA1UEChMG
SlBtYWlsMRAwDgYDVQQLEwd0ZXN0aW5nMQ0wCwYDVQQDEwRkZW1vMSAwHgYJKoZI
hvcNAQkBFhFqcG1haWxAanBtYWlsLm9yZ4IJANWGh5aLTEFKMA0GCSqGSIb3DQEB
BAUAA4GBAAOQqP/R24ftV91mvK1Nb40TERHRZ/JWr6I9uhQi8459FtWClKv509Vm
+aOKmo4DfoPLfEGzMiUBpdfI2lw1y9a0aUyQ+ovEz4BaA3ku3CChBHEiOjrraTrR
s6m03r0oP7KhbB7K5wIheHgfKht+aUWAX5+fX61s0O2lgHXj/oH2
-----END CERTIFICATE-----
