Certificate:
    Data:
        Version: 3 (0x2)
        Serial Number: 6 (0x6)
        Signature Algorithm: md5WithRSAEncryption
        Issuer: C=US, ST=PA, L=Home, O=JPmail, OU=testing, CN=demo/emailAddress=jpmail@jpmail.org
        Validity
            Not Before: Apr 21 18:05:33 2006 GMT
            Not After : Apr 21 18:05:33 2007 GMT
        Subject: C=US, ST=PA, O=JPmail, OU=JPmail Lab, CN=alice
        Subject Public Key Info:
            Public Key Algorithm: rsaEncryption
            RSA Public Key: (1024 bit)
                Modulus (1024 bit):
                    00:99:0d:bf:19:3a:58:79:e0:fc:64:14:18:58:29:
                    16:4d:e9:b5:69:98:de:de:4b:c8:4c:98:b0:ee:01:
                    65:68:48:17:90:46:31:07:cf:44:5f:aa:18:8b:c6:
                    56:45:b4:7f:c0:0b:31:78:e4:b7:80:4a:fe:ed:3b:
                    49:a3:94:15:61:c9:30:82:3f:10:30:79:52:f9:13:
                    ec:34:fe:71:99:c5:9e:dc:59:bb:51:af:9a:5e:20:
                    81:1c:6a:24:6c:39:6e:54:3c:96:12:b1:ec:18:c1:
                    b8:33:19:35:50:c1:b0:dc:39:de:3c:9e:b2:4d:09:
                    e4:3c:71:7d:42:ed:d7:a3:b9
                Exponent: 65537 (0x10001)
        X509v3 extensions:
            X509v3 Basic Constraints: 
                CA:FALSE
            Netscape Comment: 
                OpenSSL Generated Certificate
            X509v3 Subject Key Identifier: 
                58:74:7C:30:2A:39:35:CE:AE:E3:F6:D2:2D:D5:75:5C:49:36:76:7B
            X509v3 Authority Key Identifier: 
                keyid:A0:C2:BD:2D:42:F5:FF:3E:97:01:98:E5:9F:5F:89:E9:11:CD:E0:B5
                DirName:/C=US/ST=PA/L=Home/O=JPmail/OU=testing/CN=demo/emailAddress=jpmail@jpmail.org
                serial:D5:86:87:96:8B:4C:41:4A

    Signature Algorithm: md5WithRSAEncryption
        99:41:95:b1:13:bf:86:e5:06:0a:a6:3b:84:df:6b:99:db:69:
        15:c9:8f:e3:4d:11:3f:94:61:bd:f0:b8:89:eb:be:14:71:5b:
        e9:3d:dc:8c:5c:9f:35:3b:30:09:c4:2c:b1:0c:09:d3:e5:a8:
        bd:81:d9:29:0c:22:ce:42:ac:c3:62:3d:37:98:de:76:ec:46:
        f1:9f:41:dc:f0:7b:9d:c0:77:b1:71:92:7a:fb:d6:f3:47:f1:
        c7:19:db:80:21:cb:e6:bc:03:02:59:08:55:78:80:f4:b2:40:
        ae:b5:c0:e4:fb:fb:6d:7b:8b:2f:eb:e4:45:11:d8:a0:f6:c1:
        f4:00
-----BEGIN CERTIFICATE-----
MIIDVDCCAr2gAwIBAgIBBjANBgkqhkiG9w0BAQQFADB9MQswCQYDVQQGEwJVUzEL
MAkGA1UECBMCUEExDTALBgNVBAcTBEhvbWUxDzANBgNVBAoTBkpQbWFpbDEQMA4G
A1UECxMHdGVzdGluZzENMAsGA1UEAxMEZGVtbzEgMB4GCSqGSIb3DQEJARYRanBt
YWlsQGpwbWFpbC5vcmcwHhcNMDYwNDIxMTgwNTMzWhcNMDcwNDIxMTgwNTMzWjBQ
MQswCQYDVQQGEwJVUzELMAkGA1UECBMCUEExDzANBgNVBAoTBkpQbWFpbDETMBEG
A1UECxMKSlBtYWlsIExhYjEOMAwGA1UEAxMFYWxpY2UwgZ8wDQYJKoZIhvcNAQEB
BQADgY0AMIGJAoGBAJkNvxk6WHng/GQUGFgpFk3ptWmY3t5LyEyYsO4BZWhIF5BG
MQfPRF+qGIvGVkW0f8ALMXjkt4BK/u07SaOUFWHJMII/EDB5UvkT7DT+cZnFntxZ
u1Gvml4ggRxqJGw5blQ8lhKx7BjBuDMZNVDBsNw53jyesk0J5DxxfULt16O5AgMB
AAGjggEPMIIBCzAJBgNVHRMEAjAAMCwGCWCGSAGG+EIBDQQfFh1PcGVuU1NMIEdl
bmVyYXRlZCBDZXJ0aWZpY2F0ZTAdBgNVHQ4EFgQUWHR8MCo5Nc6u4/bSLdV1XEk2
dnswgbAGA1UdIwSBqDCBpYAUoMK9LUL1/z6XAZjln1+J6RHN4LWhgYGkfzB9MQsw
CQYDVQQGEwJVUzELMAkGA1UECBMCUEExDTALBgNVBAcTBEhvbWUxDzANBgNVBAoT
BkpQbWFpbDEQMA4GA1UECxMHdGVzdGluZzENMAsGA1UEAxMEZGVtbzEgMB4GCSqG
SIb3DQEJARYRanBtYWlsQGpwbWFpbC5vcmeCCQDVhoeWi0xBSjANBgkqhkiG9w0B
AQQFAAOBgQCZQZWxE7+G5QYKpjuE32uZ22kVyY/jTRE/lGG98LiJ674UcVvpPdyM
XJ81OzAJxCyxDAnT5ai9gdkpDCLOQqzDYj03mN527Ebxn0Hc8HudwHexcZJ6+9bz
R/HHGduAIcvmvAMCWQhVeID0skCutcDk+/tte4sv6+RFEdig9sH0AA==
-----END CERTIFICATE-----
