Certificate:
    Data:
        Version: 3 (0x2)
        Serial Number: 7 (0x7)
        Signature Algorithm: md5WithRSAEncryption
        Issuer: C=US, ST=PA, L=Home, O=JPmail, OU=testing, CN=demo/emailAddress=jpmail@jpmail.org
        Validity
            Not Before: Apr 21 18:19:24 2006 GMT
            Not After : Apr 21 18:19:24 2007 GMT
        Subject: C=US, ST=PA, O=JPmail, OU=JPmail Lab, CN=bono
        Subject Public Key Info:
            Public Key Algorithm: rsaEncryption
            RSA Public Key: (1024 bit)
                Modulus (1024 bit):
                    00:e0:e6:6e:5e:50:60:10:72:79:b0:35:37:90:88:
                    b3:20:04:45:fb:3b:7c:cd:69:b5:1f:dd:c8:0d:aa:
                    1b:74:5d:ff:67:5d:f7:2a:5f:92:88:7a:3c:c2:54:
                    ae:be:62:9a:58:d6:17:d4:a4:b5:01:f5:41:d8:03:
                    f9:d6:98:9a:7a:a2:56:4d:ea:76:0f:73:52:e6:64:
                    66:9d:11:a6:a0:9d:00:e3:8a:27:fb:4a:4d:40:a3:
                    5a:15:a4:db:8a:00:cc:da:fc:77:5e:78:f1:22:17:
                    da:87:26:c3:89:1b:f7:51:73:cd:4d:6e:2b:f8:cf:
                    de:00:df:10:74:fc:7b:ba:bd
                Exponent: 65537 (0x10001)
        X509v3 extensions:
            X509v3 Basic Constraints: 
                CA:FALSE
            Netscape Comment: 
                OpenSSL Generated Certificate
            X509v3 Subject Key Identifier: 
                DE:2A:8D:89:F8:E0:39:DA:EF:57:C1:4D:89:04:51:55:18:BD:7E:06
            X509v3 Authority Key Identifier: 
                keyid:A0:C2:BD:2D:42:F5:FF:3E:97:01:98:E5:9F:5F:89:E9:11:CD:E0:B5
                DirName:/C=US/ST=PA/L=Home/O=JPmail/OU=testing/CN=demo/emailAddress=jpmail@jpmail.org
                serial:D5:86:87:96:8B:4C:41:4A

    Signature Algorithm: md5WithRSAEncryption
        06:71:7f:b6:0f:11:cd:b9:7c:3d:41:ab:09:0f:86:a2:22:47:
        be:34:ee:fb:34:e4:fe:10:9b:0e:59:81:87:b6:85:da:ea:b0:
        ae:44:53:ac:95:8b:5c:44:b0:88:43:28:f0:3f:e6:ad:ea:ed:
        0b:e6:47:66:73:f2:5f:e2:d4:61:9d:23:01:d0:ba:56:ad:a6:
        61:ca:52:5c:77:a1:75:dd:e4:82:96:3b:55:87:79:71:7b:8f:
        d2:af:df:a0:48:15:e7:48:65:5b:8b:04:95:5a:35:04:f4:21:
        83:e3:f1:88:d0:02:57:95:aa:2f:7d:63:b0:1f:a9:60:35:c1:
        c8:9f
-----BEGIN CERTIFICATE-----
MIIDUzCCArygAwIBAgIBBzANBgkqhkiG9w0BAQQFADB9MQswCQYDVQQGEwJVUzEL
MAkGA1UECBMCUEExDTALBgNVBAcTBEhvbWUxDzANBgNVBAoTBkpQbWFpbDEQMA4G
A1UECxMHdGVzdGluZzENMAsGA1UEAxMEZGVtbzEgMB4GCSqGSIb3DQEJARYRanBt
YWlsQGpwbWFpbC5vcmcwHhcNMDYwNDIxMTgxOTI0WhcNMDcwNDIxMTgxOTI0WjBP
MQswCQYDVQQGEwJVUzELMAkGA1UECBMCUEExDzANBgNVBAoTBkpQbWFpbDETMBEG
A1UECxMKSlBtYWlsIExhYjENMAsGA1UEAxMEYm9ubzCBnzANBgkqhkiG9w0BAQEF
AAOBjQAwgYkCgYEA4OZuXlBgEHJ5sDU3kIizIARF+zt8zWm1H93IDaobdF3/Z133
Kl+SiHo8wlSuvmKaWNYX1KS1AfVB2AP51piaeqJWTep2D3NS5mRmnRGmoJ0A44on
+0pNQKNaFaTbigDM2vx3XnjxIhfahybDiRv3UXPNTW4r+M/eAN8QdPx7ur0CAwEA
AaOCAQ8wggELMAkGA1UdEwQCMAAwLAYJYIZIAYb4QgENBB8WHU9wZW5TU0wgR2Vu
ZXJhdGVkIENlcnRpZmljYXRlMB0GA1UdDgQWBBTeKo2J+OA52u9XwU2JBFFVGL1+
BjCBsAYDVR0jBIGoMIGlgBSgwr0tQvX/PpcBmOWfX4npEc3gtaGBgaR/MH0xCzAJ
BgNVBAYTAlVTMQswCQYDVQQIEwJQQTENMAsGA1UEBxMESG9tZTEPMA0GA1UEChMG
SlBtYWlsMRAwDgYDVQQLEwd0ZXN0aW5nMQ0wCwYDVQQDEwRkZW1vMSAwHgYJKoZI
hvcNAQkBFhFqcG1haWxAanBtYWlsLm9yZ4IJANWGh5aLTEFKMA0GCSqGSIb3DQEB
BAUAA4GBAAZxf7YPEc25fD1BqwkPhqIiR7407vs05P4Qmw5ZgYe2hdrqsK5EU6yV
i1xEsIhDKPA/5q3q7QvmR2Zz8l/i1GGdIwHQulatpmHKUlx3oXXd5IKWO1WHeXF7
j9Kv36BIFedIZVuLBJVaNQT0IYPj8YjQAleVqi99Y7AfqWA1wcif
-----END CERTIFICATE-----
